
SmartHomeIoT_AVR.elf:     file format elf32-avr

Sections:
Idx Name          Size      VMA       LMA       File off  Algn
  0 .data         00000048  00800100  00000ab6  00000b4a  2**0
                  CONTENTS, ALLOC, LOAD, DATA
  1 .text         00000ab6  00000000  00000000  00000094  2**1
                  CONTENTS, ALLOC, LOAD, READONLY, CODE
  2 .bss          00000052  00800148  00800148  00000b92  2**0
                  ALLOC
  3 .debug_aranges 00000060  00000000  00000000  00000b92  2**0
                  CONTENTS, READONLY, DEBUGGING
  4 .debug_pubnames 0000027a  00000000  00000000  00000bf2  2**0
                  CONTENTS, READONLY, DEBUGGING
  5 .debug_info   00001236  00000000  00000000  00000e6c  2**0
                  CONTENTS, READONLY, DEBUGGING
  6 .debug_abbrev 00000571  00000000  00000000  000020a2  2**0
                  CONTENTS, READONLY, DEBUGGING
  7 .debug_line   00000df6  00000000  00000000  00002613  2**0
                  CONTENTS, READONLY, DEBUGGING
  8 .debug_frame  00000220  00000000  00000000  0000340c  2**2
                  CONTENTS, READONLY, DEBUGGING
  9 .debug_str    0000039b  00000000  00000000  0000362c  2**0
                  CONTENTS, READONLY, DEBUGGING
 10 .debug_loc    00000581  00000000  00000000  000039c7  2**0
                  CONTENTS, READONLY, DEBUGGING
 11 .debug_ranges 00000108  00000000  00000000  00003f48  2**0
                  CONTENTS, READONLY, DEBUGGING

Disassembly of section .text:

00000000 <__vectors>:
   0:	0c 94 46 00 	jmp	0x8c	; 0x8c <__ctors_end>
   4:	0c 94 65 00 	jmp	0xca	; 0xca <__bad_interrupt>
   8:	0c 94 65 00 	jmp	0xca	; 0xca <__bad_interrupt>
   c:	0c 94 65 00 	jmp	0xca	; 0xca <__bad_interrupt>
  10:	0c 94 65 00 	jmp	0xca	; 0xca <__bad_interrupt>
  14:	0c 94 65 00 	jmp	0xca	; 0xca <__bad_interrupt>
  18:	0c 94 65 00 	jmp	0xca	; 0xca <__bad_interrupt>
  1c:	0c 94 65 00 	jmp	0xca	; 0xca <__bad_interrupt>
  20:	0c 94 65 00 	jmp	0xca	; 0xca <__bad_interrupt>
  24:	0c 94 65 00 	jmp	0xca	; 0xca <__bad_interrupt>
  28:	0c 94 65 00 	jmp	0xca	; 0xca <__bad_interrupt>
  2c:	0c 94 65 00 	jmp	0xca	; 0xca <__bad_interrupt>
  30:	0c 94 65 00 	jmp	0xca	; 0xca <__bad_interrupt>
  34:	0c 94 65 00 	jmp	0xca	; 0xca <__bad_interrupt>
  38:	0c 94 65 00 	jmp	0xca	; 0xca <__bad_interrupt>
  3c:	0c 94 65 00 	jmp	0xca	; 0xca <__bad_interrupt>
  40:	0c 94 95 03 	jmp	0x72a	; 0x72a <__vector_16>
  44:	0c 94 65 00 	jmp	0xca	; 0xca <__bad_interrupt>
  48:	0c 94 d1 03 	jmp	0x7a2	; 0x7a2 <__vector_18>
  4c:	0c 94 65 00 	jmp	0xca	; 0xca <__bad_interrupt>
  50:	0c 94 65 00 	jmp	0xca	; 0xca <__bad_interrupt>
  54:	0c 94 65 00 	jmp	0xca	; 0xca <__bad_interrupt>
  58:	0c 94 65 00 	jmp	0xca	; 0xca <__bad_interrupt>
  5c:	0c 94 65 00 	jmp	0xca	; 0xca <__bad_interrupt>
  60:	0c 94 65 00 	jmp	0xca	; 0xca <__bad_interrupt>
  64:	0c 94 65 00 	jmp	0xca	; 0xca <__bad_interrupt>
  68:	0c 94 65 00 	jmp	0xca	; 0xca <__bad_interrupt>
  6c:	0c 94 65 00 	jmp	0xca	; 0xca <__bad_interrupt>
  70:	0c 94 65 00 	jmp	0xca	; 0xca <__bad_interrupt>
  74:	0c 94 65 00 	jmp	0xca	; 0xca <__bad_interrupt>
  78:	0c 94 5c 01 	jmp	0x2b8	; 0x2b8 <__vector_30>
  7c:	0c 94 65 00 	jmp	0xca	; 0xca <__bad_interrupt>
  80:	0c 94 65 00 	jmp	0xca	; 0xca <__bad_interrupt>
  84:	0c 94 65 00 	jmp	0xca	; 0xca <__bad_interrupt>
  88:	0c 94 65 00 	jmp	0xca	; 0xca <__bad_interrupt>

0000008c <__ctors_end>:
  8c:	11 24       	eor	r1, r1
  8e:	1f be       	out	0x3f, r1	; 63
  90:	cf ef       	ldi	r28, 0xFF	; 255
  92:	d0 e1       	ldi	r29, 0x10	; 16
  94:	de bf       	out	0x3e, r29	; 62
  96:	cd bf       	out	0x3d, r28	; 61

00000098 <__do_copy_data>:
  98:	11 e0       	ldi	r17, 0x01	; 1
  9a:	a0 e0       	ldi	r26, 0x00	; 0
  9c:	b1 e0       	ldi	r27, 0x01	; 1
  9e:	e6 eb       	ldi	r30, 0xB6	; 182
  a0:	fa e0       	ldi	r31, 0x0A	; 10
  a2:	00 e0       	ldi	r16, 0x00	; 0
  a4:	0b bf       	out	0x3b, r16	; 59
  a6:	02 c0       	rjmp	.+4      	; 0xac <__do_copy_data+0x14>
  a8:	07 90       	elpm	r0, Z+
  aa:	0d 92       	st	X+, r0
  ac:	a8 34       	cpi	r26, 0x48	; 72
  ae:	b1 07       	cpc	r27, r17
  b0:	d9 f7       	brne	.-10     	; 0xa8 <__do_copy_data+0x10>

000000b2 <__do_clear_bss>:
  b2:	11 e0       	ldi	r17, 0x01	; 1
  b4:	a8 e4       	ldi	r26, 0x48	; 72
  b6:	b1 e0       	ldi	r27, 0x01	; 1
  b8:	01 c0       	rjmp	.+2      	; 0xbc <.do_clear_bss_start>

000000ba <.do_clear_bss_loop>:
  ba:	1d 92       	st	X+, r1

000000bc <.do_clear_bss_start>:
  bc:	aa 39       	cpi	r26, 0x9A	; 154
  be:	b1 07       	cpc	r27, r17
  c0:	e1 f7       	brne	.-8      	; 0xba <.do_clear_bss_loop>
  c2:	0e 94 84 04 	call	0x908	; 0x908 <main>
  c6:	0c 94 59 05 	jmp	0xab2	; 0xab2 <_exit>

000000ca <__bad_interrupt>:
  ca:	0c 94 00 00 	jmp	0	; 0x0 <__vectors>

000000ce <Request>:
#define DHT11_PIN PD7
uint8_t c = 0;

void Request()				/* Microcontroller send start pulse/request */
{
	DDRD |= (1<<DHT11_PIN);
  ce:	8f 9a       	sbi	0x11, 7	; 17
	PORTD &= ~(1<<DHT11_PIN);	/* set to low pin */
  d0:	97 98       	cbi	0x12, 7	; 18
  d2:	88 ec       	ldi	r24, 0xC8	; 200
  d4:	90 e0       	ldi	r25, 0x00	; 0
    milliseconds can be achieved.
 */
void
_delay_loop_2(uint16_t __count)
{
	__asm__ volatile (
  d6:	20 e9       	ldi	r18, 0x90	; 144
  d8:	31 e0       	ldi	r19, 0x01	; 1
  da:	f9 01       	movw	r30, r18
  dc:	31 97       	sbiw	r30, 0x01	; 1
  de:	f1 f7       	brne	.-4      	; 0xdc <Request+0xe>
		__ticks = (uint16_t) (__ms * 10.0);
		while(__ticks)
		{
			// wait 1/10 ms
			_delay_loop_2(((F_CPU) / 4e3) / 10);
			__ticks --;
  e0:	01 97       	sbiw	r24, 0x01	; 1
		__ticks = 1;
	else if (__tmp > 65535)
	{
		//	__ticks = requested delay in 1/10 ms
		__ticks = (uint16_t) (__ms * 10.0);
		while(__ticks)
  e2:	d9 f7       	brne	.-10     	; 0xda <Request+0xc>
	_delay_ms(20);			/* wait for 20ms */
	PORTD |= (1<<DHT11_PIN);	/* set to high pin */
  e4:	97 9a       	sbi	0x12, 7	; 18
    can be achieved.
*/
void
_delay_loop_1(uint8_t __count)
{
	__asm__ volatile (
  e6:	85 ed       	ldi	r24, 0xD5	; 213
  e8:	8a 95       	dec	r24
  ea:	f1 f7       	brne	.-4      	; 0xe8 <Request+0x1a>
	_delay_us(40);
}
  ec:	08 95       	ret

000000ee <Response>:

void Response()				/* receive response from DHT11 */
{
	DDRD &= ~(1<<DHT11_PIN);
  ee:	8f 98       	cbi	0x11, 7	; 17
	while(PIND & (1<<DHT11_PIN));
  f0:	87 99       	sbic	0x10, 7	; 16
  f2:	fe cf       	rjmp	.-4      	; 0xf0 <Response+0x2>
	while((PIND & (1<<DHT11_PIN))==0);
  f4:	87 9b       	sbis	0x10, 7	; 16
  f6:	fe cf       	rjmp	.-4      	; 0xf4 <Response+0x6>
	while(PIND & (1<<DHT11_PIN));
  f8:	87 99       	sbic	0x10, 7	; 16
  fa:	fe cf       	rjmp	.-4      	; 0xf8 <Response+0xa>
}
  fc:	08 95       	ret

000000fe <Receive_data>:

uint8_t Receive_data()			/* receive data */
{	
  fe:	80 91 48 01 	lds	r24, 0x0148
 102:	20 e0       	ldi	r18, 0x00	; 0
 104:	30 e0       	ldi	r19, 0x00	; 0
 106:	40 ea       	ldi	r20, 0xA0	; 160
	for (int q=0; q<8; q++)
	{
		while((PIND & (1<<DHT11_PIN)) == 0);  /* check received bit 0 or 1 */
 108:	87 9b       	sbis	0x10, 7	; 16
 10a:	fe cf       	rjmp	.-4      	; 0x108 <Receive_data+0xa>
 10c:	94 2f       	mov	r25, r20
 10e:	9a 95       	dec	r25
 110:	f1 f7       	brne	.-4      	; 0x10e <Receive_data+0x10>
		_delay_us(30);
		if(PIND & (1<<DHT11_PIN)) /* if high pulse is greater than 30ms */
 112:	87 9b       	sbis	0x10, 7	; 16
 114:	03 c0       	rjmp	.+6      	; 0x11c <Receive_data+0x1e>
		{
			c = (c<<1)|(0x01);	/* then its logic HIGH */
 116:	88 0f       	add	r24, r24
 118:	81 60       	ori	r24, 0x01	; 1
 11a:	01 c0       	rjmp	.+2      	; 0x11e <Receive_data+0x20>
		}
		else			/* otherwise its logic LOW */
		{
			c = (c<<1);
 11c:	88 0f       	add	r24, r24
		}

		while(PIND & (1<<DHT11_PIN));
 11e:	87 99       	sbic	0x10, 7	; 16
 120:	fe cf       	rjmp	.-4      	; 0x11e <Receive_data+0x20>
	while(PIND & (1<<DHT11_PIN));
}

uint8_t Receive_data()			/* receive data */
{	
	for (int q=0; q<8; q++)
 122:	2f 5f       	subi	r18, 0xFF	; 255
 124:	3f 4f       	sbci	r19, 0xFF	; 255
 126:	28 30       	cpi	r18, 0x08	; 8
 128:	31 05       	cpc	r19, r1
 12a:	71 f7       	brne	.-36     	; 0x108 <Receive_data+0xa>
 12c:	80 93 48 01 	sts	0x0148, r24

		while(PIND & (1<<DHT11_PIN));
		
	}
	return c;
}
 130:	08 95       	ret

00000132 <Receive_data_dummy>:
uint8_t Receive_data_dummy()
{
 132:	80 91 48 01 	lds	r24, 0x0148
 136:	20 e0       	ldi	r18, 0x00	; 0
 138:	30 e0       	ldi	r19, 0x00	; 0
 13a:	40 ea       	ldi	r20, 0xA0	; 160
	for (int q=0; q<2; q++)
	{
		while((PIND & (1<<DHT11_PIN)) == 0);  /* check received bit 0 or 1 */
 13c:	87 9b       	sbis	0x10, 7	; 16
 13e:	fe cf       	rjmp	.-4      	; 0x13c <Receive_data_dummy+0xa>
 140:	94 2f       	mov	r25, r20
 142:	9a 95       	dec	r25
 144:	f1 f7       	brne	.-4      	; 0x142 <Receive_data_dummy+0x10>
		_delay_us(30);
		if(PIND & (1<<DHT11_PIN)) /* if high pulse is greater than 30ms */
 146:	87 9b       	sbis	0x10, 7	; 16
 148:	03 c0       	rjmp	.+6      	; 0x150 <Receive_data_dummy+0x1e>
		{
			c = (c<<1)|(0x01);	/* then its logic HIGH */
 14a:	88 0f       	add	r24, r24
 14c:	81 60       	ori	r24, 0x01	; 1
 14e:	01 c0       	rjmp	.+2      	; 0x152 <Receive_data_dummy+0x20>
		}
		else			/* otherwise its logic LOW */
		{
			c = (c<<1);
 150:	88 0f       	add	r24, r24
		}

		while(PIND & (1<<DHT11_PIN));
 152:	87 99       	sbic	0x10, 7	; 16
 154:	fe cf       	rjmp	.-4      	; 0x152 <Receive_data_dummy+0x20>
	}
	return c;
}
uint8_t Receive_data_dummy()
{
	for (int q=0; q<2; q++)
 156:	2f 5f       	subi	r18, 0xFF	; 255
 158:	3f 4f       	sbci	r19, 0xFF	; 255
 15a:	22 30       	cpi	r18, 0x02	; 2
 15c:	31 05       	cpc	r19, r1
 15e:	71 f7       	brne	.-36     	; 0x13c <Receive_data_dummy+0xa>
 160:	80 93 48 01 	sts	0x0148, r24

		while(PIND & (1<<DHT11_PIN));
		
	}
	return c;
}
 164:	08 95       	ret

00000166 <LcdPutchar>:
 166:	95 e3       	ldi	r25, 0x35	; 53
 168:	29 2f       	mov	r18, r25
 16a:	2a 95       	dec	r18
 16c:	f1 f7       	brne	.-4      	; 0x16a <LcdPutchar+0x4>

static void write_data(char ch)
{
	unsigned char temp;

	temp = (ch & 0xF0) | 0x05;
 16e:	29 2f       	mov	r18, r25
 170:	2a 95       	dec	r18
 172:	f1 f7       	brne	.-4      	; 0x170 <LcdPutchar+0xa>
 174:	29 2f       	mov	r18, r25
 176:	2a 95       	dec	r18
 178:	f1 f7       	brne	.-4      	; 0x176 <LcdPutchar+0x10>
 17a:	29 2f       	mov	r18, r25
 17c:	2a 95       	dec	r18
 17e:	f1 f7       	brne	.-4      	; 0x17c <LcdPutchar+0x16>
 180:	9a 95       	dec	r25
 182:	f1 f7       	brne	.-4      	; 0x180 <LcdPutchar+0x1a>
 184:	98 2f       	mov	r25, r24
 186:	90 7f       	andi	r25, 0xF0	; 240
 188:	95 60       	ori	r25, 0x05	; 5

	LCD_PORT = temp;
 18a:	9b bb       	out	0x1b, r25	; 27
	LCD_PORT = temp & ~0x04;
 18c:	9b 7f       	andi	r25, 0xFB	; 251
 18e:	9b bb       	out	0x1b, r25	; 27

	temp = (ch<<4) | 0x05;
 190:	82 95       	swap	r24
 192:	80 7f       	andi	r24, 0xF0	; 240
 194:	85 60       	ori	r24, 0x05	; 5

	LCD_PORT = temp;
 196:	8b bb       	out	0x1b, r24	; 27
	LCD_PORT = temp & ~0x04;
 198:	8b 7f       	andi	r24, 0xFB	; 251
 19a:	8b bb       	out	0x1b, r24	; 27

void LcdPutchar(char ch)
{
	checkbusy();
	write_data(ch);
}
 19c:	08 95       	ret

0000019e <LcdPuts>:

void LcdPuts(char* str)
{
 19e:	cf 93       	push	r28
 1a0:	df 93       	push	r29
 1a2:	ec 01       	movw	r28, r24
 1a4:	03 c0       	rjmp	.+6      	; 0x1ac <LcdPuts+0xe>
   while(*str)
  {
   LcdPutchar(*str);
 1a6:	0e 94 b3 00 	call	0x166	; 0x166 <LcdPutchar>
   str++;
 1aa:	21 96       	adiw	r28, 0x01	; 1
	write_data(ch);
}

void LcdPuts(char* str)
{
   while(*str)
 1ac:	88 81       	ld	r24, Y
 1ae:	88 23       	and	r24, r24
 1b0:	d1 f7       	brne	.-12     	; 0x1a6 <LcdPuts+0x8>
  {
   LcdPutchar(*str);
   str++;
  }
}
 1b2:	df 91       	pop	r29
 1b4:	cf 91       	pop	r28
 1b6:	08 95       	ret

000001b8 <write_command>:

static void write_command(char command)

{
  char temp;
  temp = (command & 0xF0)|0x04;
 1b8:	98 2f       	mov	r25, r24
 1ba:	90 7f       	andi	r25, 0xF0	; 240
 1bc:	94 60       	ori	r25, 0x04	; 4

LCD_PORT = temp;
 1be:	9b bb       	out	0x1b, r25	; 27
LCD_PORT = temp & ~0x04;
 1c0:	9b 7f       	andi	r25, 0xFB	; 251
 1c2:	9b bb       	out	0x1b, r25	; 27

temp = (command << 4) | 0x04;
 1c4:	82 95       	swap	r24
 1c6:	80 7f       	andi	r24, 0xF0	; 240
 1c8:	84 60       	ori	r24, 0x04	; 4

LCD_PORT = temp;
 1ca:	8b bb       	out	0x1b, r24	; 27
LCD_PORT = temp & ~0x04;
 1cc:	8b 7f       	andi	r24, 0xFB	; 251
 1ce:	8b bb       	out	0x1b, r24	; 27
 1d0:	85 e0       	ldi	r24, 0x05	; 5
 1d2:	8a 95       	dec	r24
 1d4:	f1 f7       	brne	.-4      	; 0x1d2 <write_command+0x1a>
_delay_us(1);
}
 1d6:	08 95       	ret

000001d8 <LcdCommand>:
	LcdCommand(ENTMOD);

	LcdCommand(DISP_ON);
}
void LcdCommand(char command)
{
 1d8:	1f 93       	push	r17
 1da:	18 2f       	mov	r17, r24
 1dc:	85 e3       	ldi	r24, 0x35	; 53
 1de:	98 2f       	mov	r25, r24
 1e0:	9a 95       	dec	r25
 1e2:	f1 f7       	brne	.-4      	; 0x1e0 <LcdCommand+0x8>
	checkbusy();
	write_command(command);
 1e4:	98 2f       	mov	r25, r24
 1e6:	9a 95       	dec	r25
 1e8:	f1 f7       	brne	.-4      	; 0x1e6 <LcdCommand+0xe>
 1ea:	98 2f       	mov	r25, r24
 1ec:	9a 95       	dec	r25
 1ee:	f1 f7       	brne	.-4      	; 0x1ec <LcdCommand+0x14>
 1f0:	98 2f       	mov	r25, r24
 1f2:	9a 95       	dec	r25
 1f4:	f1 f7       	brne	.-4      	; 0x1f2 <LcdCommand+0x1a>
 1f6:	8a 95       	dec	r24
 1f8:	f1 f7       	brne	.-4      	; 0x1f6 <LcdCommand+0x1e>
 1fa:	81 2f       	mov	r24, r17
 1fc:	0e 94 dc 00 	call	0x1b8	; 0x1b8 <write_command>
	if(command==ALLCLR || command==HOME)
 200:	11 50       	subi	r17, 0x01	; 1
 202:	12 30       	cpi	r17, 0x02	; 2
 204:	20 f4       	brcc	.+8      	; 0x20e <LcdCommand+0x36>
    milliseconds can be achieved.
 */
void
_delay_loop_2(uint16_t __count)
{
	__asm__ volatile (
 206:	80 e4       	ldi	r24, 0x40	; 64
 208:	9f e1       	ldi	r25, 0x1F	; 31
 20a:	01 97       	sbiw	r24, 0x01	; 1
 20c:	f1 f7       	brne	.-4      	; 0x20a <LcdCommand+0x32>
		_delay_ms(2);
}
 20e:	1f 91       	pop	r17
 210:	08 95       	ret

00000212 <LcdNewchar>:
  LcdCommand(pos);
}


void LcdNewchar(char ch, char font[])
{
 212:	0f 93       	push	r16
 214:	1f 93       	push	r17
 216:	cf 93       	push	r28
 218:	df 93       	push	r29
 21a:	8b 01       	movw	r16, r22
 int i;

 ch <<=3;
 21c:	88 0f       	add	r24, r24
 21e:	88 0f       	add	r24, r24
 220:	88 0f       	add	r24, r24
 ch|= 0x40;

 LcdCommand(ch);
 222:	80 64       	ori	r24, 0x40	; 64
 224:	0e 94 ec 00 	call	0x1d8	; 0x1d8 <LcdCommand>
 228:	c0 e0       	ldi	r28, 0x00	; 0
 22a:	d0 e0       	ldi	r29, 0x00	; 0

 for(i=0;i<8;i++)
    LcdPutchar(font[i]);
 22c:	f8 01       	movw	r30, r16
 22e:	ec 0f       	add	r30, r28
 230:	fd 1f       	adc	r31, r29
 232:	80 81       	ld	r24, Z
 234:	0e 94 b3 00 	call	0x166	; 0x166 <LcdPutchar>
 ch <<=3;
 ch|= 0x40;

 LcdCommand(ch);

 for(i=0;i<8;i++)
 238:	21 96       	adiw	r28, 0x01	; 1
 23a:	c8 30       	cpi	r28, 0x08	; 8
 23c:	d1 05       	cpc	r29, r1
 23e:	b1 f7       	brne	.-20     	; 0x22c <LcdNewchar+0x1a>
    LcdPutchar(font[i]);
}
 240:	df 91       	pop	r29
 242:	cf 91       	pop	r28
 244:	1f 91       	pop	r17
 246:	0f 91       	pop	r16
 248:	08 95       	ret

0000024a <LcdMove>:

{ 

//  pos = (line << 6) + pos; 

	if(line == 0 )       pos = 0x00 + pos ;
 24a:	88 23       	and	r24, r24
 24c:	49 f0       	breq	.+18     	; 0x260 <LcdMove+0x16>
	else if( line == 1 ) pos = 0x40 + pos ;
 24e:	81 30       	cpi	r24, 0x01	; 1
 250:	11 f4       	brne	.+4      	; 0x256 <LcdMove+0xc>
 252:	60 5c       	subi	r22, 0xC0	; 192
 254:	05 c0       	rjmp	.+10     	; 0x260 <LcdMove+0x16>
	else if( line == 2 ) pos = 0x10 + pos ;
 256:	82 30       	cpi	r24, 0x02	; 2
 258:	11 f4       	brne	.+4      	; 0x25e <LcdMove+0x14>
 25a:	60 5f       	subi	r22, 0xF0	; 240
 25c:	01 c0       	rjmp	.+2      	; 0x260 <LcdMove+0x16>
	else                 pos = 0x50 + pos ;
 25e:	60 5b       	subi	r22, 0xB0	; 176

  pos |= 0x80;
 
  LcdCommand(pos);
 260:	86 2f       	mov	r24, r22
 262:	80 68       	ori	r24, 0x80	; 128
 264:	0e 94 ec 00 	call	0x1d8	; 0x1d8 <LcdCommand>
}
 268:	08 95       	ret

0000026a <LcdInit>:
static void write_command(char command);
static void write_data(char ch);

void LcdInit(void)
{
	LCD_DDR = 0xff;
 26a:	8f ef       	ldi	r24, 0xFF	; 255
 26c:	8a bb       	out	0x1a, r24	; 26
 26e:	80 e6       	ldi	r24, 0x60	; 96
 270:	9a ee       	ldi	r25, 0xEA	; 234
 272:	01 97       	sbiw	r24, 0x01	; 1
 274:	f1 f7       	brne	.-4      	; 0x272 <LcdInit+0x8>
	_delay_ms(15);
	write_command(0x30);
 276:	80 e3       	ldi	r24, 0x30	; 48
 278:	0e 94 dc 00 	call	0x1b8	; 0x1b8 <write_command>
 27c:	80 e2       	ldi	r24, 0x20	; 32
 27e:	9e e4       	ldi	r25, 0x4E	; 78
 280:	01 97       	sbiw	r24, 0x01	; 1
 282:	f1 f7       	brne	.-4      	; 0x280 <LcdInit+0x16>
	_delay_ms(5);
	write_command(0x30);
 284:	80 e3       	ldi	r24, 0x30	; 48
 286:	0e 94 dc 00 	call	0x1b8	; 0x1b8 <write_command>
 28a:	80 ea       	ldi	r24, 0xA0	; 160
 28c:	9f e0       	ldi	r25, 0x0F	; 15
 28e:	01 97       	sbiw	r24, 0x01	; 1
 290:	f1 f7       	brne	.-4      	; 0x28e <LcdInit+0x24>
	_delay_ms(1);
	write_command(0x32);
 292:	82 e3       	ldi	r24, 0x32	; 50
 294:	0e 94 dc 00 	call	0x1b8	; 0x1b8 <write_command>

	LcdCommand(FUNSET);
 298:	88 e2       	ldi	r24, 0x28	; 40
 29a:	0e 94 ec 00 	call	0x1d8	; 0x1d8 <LcdCommand>
	LcdCommand(DISP_OFF);
 29e:	88 e0       	ldi	r24, 0x08	; 8
 2a0:	0e 94 ec 00 	call	0x1d8	; 0x1d8 <LcdCommand>
	LcdCommand(ALLCLR);
 2a4:	81 e0       	ldi	r24, 0x01	; 1
 2a6:	0e 94 ec 00 	call	0x1d8	; 0x1d8 <LcdCommand>
	LcdCommand(ENTMOD);
 2aa:	86 e0       	ldi	r24, 0x06	; 6
 2ac:	0e 94 ec 00 	call	0x1d8	; 0x1d8 <LcdCommand>

	LcdCommand(DISP_ON);
 2b0:	8c e0       	ldi	r24, 0x0C	; 12
 2b2:	0e 94 ec 00 	call	0x1d8	; 0x1d8 <LcdCommand>
}
 2b6:	08 95       	ret

000002b8 <__vector_30>:
		dust_count = 0 ;		
	}
}

ISR( USART1_RX_vect )
{
 2b8:	1f 92       	push	r1
 2ba:	0f 92       	push	r0
 2bc:	0f b6       	in	r0, 0x3f	; 63
 2be:	0f 92       	push	r0
 2c0:	0b b6       	in	r0, 0x3b	; 59
 2c2:	0f 92       	push	r0
 2c4:	11 24       	eor	r1, r1
 2c6:	8f 93       	push	r24
 2c8:	9f 93       	push	r25
 2ca:	ef 93       	push	r30
 2cc:	ff 93       	push	r31
    static unsigned char r_cnt = 0 ;

    rdata = UDR1; 
 2ce:	80 91 9c 00 	lds	r24, 0x009C
 2d2:	80 93 74 01 	sts	0x0174, r24

    if( rdata != '.' )                      // 수신된 데이터가 마지막 문자를 나타내는 데이터(마침표)가 아니면
 2d6:	80 91 74 01 	lds	r24, 0x0174
 2da:	8e 32       	cpi	r24, 0x2E	; 46
 2dc:	79 f0       	breq	.+30     	; 0x2fc <__vector_30+0x44>
    {
        recv_data[r_cnt] = rdata;        //  수신된 문자 저장 
 2de:	80 91 7a 01 	lds	r24, 0x017A
 2e2:	e8 2f       	mov	r30, r24
 2e4:	f0 e0       	ldi	r31, 0x00	; 0
 2e6:	90 91 74 01 	lds	r25, 0x0174
 2ea:	eb 58       	subi	r30, 0x8B	; 139
 2ec:	fe 4f       	sbci	r31, 0xFE	; 254
 2ee:	90 83       	st	Z, r25
	    r_cnt++;                         //  수신 문자 갯수 증가 
 2f0:	8f 5f       	subi	r24, 0xFF	; 255
 2f2:	80 93 7a 01 	sts	0x017A, r24

		new_recv_flag = 0;
 2f6:	10 92 78 01 	sts	0x0178, r1
 2fa:	0d c0       	rjmp	.+26     	; 0x316 <__vector_30+0x5e>
    }
    else if(  rdata == '.' )                // 수신된데이터가 마지막 문자를 나타내는 데이터(마침표) 이면
 2fc:	80 91 74 01 	lds	r24, 0x0174
 300:	8e 32       	cpi	r24, 0x2E	; 46
 302:	49 f4       	brne	.+18     	; 0x316 <__vector_30+0x5e>
    {
        recv_cnt = r_cnt ;                  // 수신된 데이터 바이트수 저장
 304:	80 91 7a 01 	lds	r24, 0x017A
 308:	80 93 79 01 	sts	0x0179, r24
        r_cnt = 0;  
 30c:	10 92 7a 01 	sts	0x017A, r1
        
		new_recv_flag = 1;
 310:	81 e0       	ldi	r24, 0x01	; 1
 312:	80 93 78 01 	sts	0x0178, r24
    }
}
 316:	ff 91       	pop	r31
 318:	ef 91       	pop	r30
 31a:	9f 91       	pop	r25
 31c:	8f 91       	pop	r24
 31e:	0f 90       	pop	r0
 320:	0b be       	out	0x3b, r0	; 59
 322:	0f 90       	pop	r0
 324:	0f be       	out	0x3f, r0	; 63
 326:	0f 90       	pop	r0
 328:	1f 90       	pop	r1
 32a:	18 95       	reti

0000032c <pin_init>:


void pin_init()
{
	DDRB |= 0x80;    //  PWM 포트: OC2( PB7 ) 출력설정
 32c:	bf 9a       	sbi	0x17, 7	; 23
}
 32e:	08 95       	ret

00000330 <init_serial>:

	sei();         // Global Interrupt Enable 
}
void init_serial(void)
{
    UCSR0A = 0x00;                    //초기화
 330:	1b b8       	out	0x0b, r1	; 11
    UCSR0B = 0x18;                    //송수신허용,  송수신 인터럽트 금지
 332:	28 e1       	ldi	r18, 0x18	; 24
 334:	2a b9       	out	0x0a, r18	; 10
    UCSR0C = 0x06;                    //데이터 전송비트 수 8비트로 설정.
 336:	96 e0       	ldi	r25, 0x06	; 6
 338:	90 93 95 00 	sts	0x0095, r25
    
    UBRR0H = 0x00;
 33c:	10 92 90 00 	sts	0x0090, r1
    UBRR0L = 103;                     //Baud Rate 9600 
 340:	87 e6       	ldi	r24, 0x67	; 103
 342:	89 b9       	out	0x09, r24	; 9

	UCSR0B |= 0x80;   // UART0 수신(RX) 완료 인터럽트 허용 블루투스 통신
 344:	57 9a       	sbi	0x0a, 7	; 10

	UCSR1A = 0x00;                    //초기화
 346:	10 92 9b 00 	sts	0x009B, r1
    UCSR1B = 0x18;                    //송수신허용,  송수신 인터럽트 금지
 34a:	ea e9       	ldi	r30, 0x9A	; 154
 34c:	f0 e0       	ldi	r31, 0x00	; 0
 34e:	20 83       	st	Z, r18
    UCSR1C = 0x06;                    //데이터 전송비트 수 8비트로 설정.
 350:	90 93 9d 00 	sts	0x009D, r25
    
    UBRR1H = 0x00;
 354:	10 92 98 00 	sts	0x0098, r1
    UBRR1L = 103;                     //Baud Rate 9600 
 358:	80 93 99 00 	sts	0x0099, r24

	UCSR1B |= 0x80;   // UART1 수신(RX) 완료 인터럽트 허용 블루투스 통신
 35c:	80 81       	ld	r24, Z
 35e:	80 68       	ori	r24, 0x80	; 128
 360:	80 83       	st	Z, r24
}
 362:	08 95       	ret

00000364 <Servo_On>:
	_delay_ms(10);
}

void Servo_On()
{
	Pos_CMD = 150 ;   		                 // 서보 위치 명령 =  0 도 (왼쪽 끝)  
 364:	86 e9       	ldi	r24, 0x96	; 150
 366:	80 93 73 01 	sts	0x0173, r24
    OCR2 = ( 135 * Pos_CMD )/900  + 10  ;   
 36a:	90 91 73 01 	lds	r25, 0x0173
 36e:	87 e8       	ldi	r24, 0x87	; 135
 370:	98 9f       	mul	r25, r24
 372:	c0 01       	movw	r24, r0
 374:	11 24       	eor	r1, r1
 376:	64 e8       	ldi	r22, 0x84	; 132
 378:	73 e0       	ldi	r23, 0x03	; 3
 37a:	0e 94 15 05 	call	0xa2a	; 0xa2a <__divmodhi4>
 37e:	66 5f       	subi	r22, 0xF6	; 246
 380:	63 bd       	out	0x23, r22	; 35
}
 382:	08 95       	ret

00000384 <Servo_Off>:
void Servo_Off()
{
	Pos_CMD = 30 ;   		                 // 서보 위치 명령 =  180 도 (오른쪽 끝)  
 384:	8e e1       	ldi	r24, 0x1E	; 30
 386:	80 93 73 01 	sts	0x0173, r24
    OCR2 = ( 135 * Pos_CMD )/900  + 10  ;   
 38a:	90 91 73 01 	lds	r25, 0x0173
 38e:	87 e8       	ldi	r24, 0x87	; 135
 390:	98 9f       	mul	r25, r24
 392:	c0 01       	movw	r24, r0
 394:	11 24       	eor	r1, r1
 396:	64 e8       	ldi	r22, 0x84	; 132
 398:	73 e0       	ldi	r23, 0x03	; 3
 39a:	0e 94 15 05 	call	0xa2a	; 0xa2a <__divmodhi4>
 39e:	66 5f       	subi	r22, 0xF6	; 246
 3a0:	63 bd       	out	0x23, r22	; 35
}
 3a2:	08 95       	ret

000003a4 <Servo_SET>:
void Servo_SET()
{
	Pos_CMD = 90 ;   		                 // 서보 위치 명령 =  90 도 (오른쪽 끝)  
 3a4:	8a e5       	ldi	r24, 0x5A	; 90
 3a6:	80 93 73 01 	sts	0x0173, r24
    OCR2 = ( 135 * Pos_CMD )/900  + 10  ;   
 3aa:	90 91 73 01 	lds	r25, 0x0173
 3ae:	87 e8       	ldi	r24, 0x87	; 135
 3b0:	98 9f       	mul	r25, r24
 3b2:	c0 01       	movw	r24, r0
 3b4:	11 24       	eor	r1, r1
 3b6:	64 e8       	ldi	r22, 0x84	; 132
 3b8:	73 e0       	ldi	r23, 0x03	; 3
 3ba:	0e 94 15 05 	call	0xa2a	; 0xa2a <__divmodhi4>
 3be:	66 5f       	subi	r22, 0xF6	; 246
 3c0:	63 bd       	out	0x23, r22	; 35
}
 3c2:	08 95       	ret

000003c4 <SerialPutChar>:

void SerialPutChar(char ch)
{
 3c4:	98 2f       	mov	r25, r24
	while(!(UCSR1A & (1<<UDRE)));			// 버퍼가 빌 때를 기다림
 3c6:	80 91 9b 00 	lds	r24, 0x009B
 3ca:	85 ff       	sbrs	r24, 5
 3cc:	fc cf       	rjmp	.-8      	; 0x3c6 <SerialPutChar+0x2>
  	UDR1 = ch;								// 버퍼에 문자를 쓴다
 3ce:	90 93 9c 00 	sts	0x009C, r25
} // 한 문자를 송신한다.
 3d2:	08 95       	ret

000003d4 <SerialPutString>:

void SerialPutString(char *str)
 {
 3d4:	fc 01       	movw	r30, r24
 3d6:	07 c0       	rjmp	.+14     	; 0x3e6 <SerialPutString+0x12>
    OCR2 = ( 135 * Pos_CMD )/900  + 10  ;   
}

void SerialPutChar(char ch)
{
	while(!(UCSR1A & (1<<UDRE)));			// 버퍼가 빌 때를 기다림
 3d8:	80 91 9b 00 	lds	r24, 0x009B
 3dc:	85 ff       	sbrs	r24, 5
 3de:	fc cf       	rjmp	.-8      	; 0x3d8 <SerialPutString+0x4>
void SerialPutString(char *str)
 {

    while(*str != '\0')          // 수신된 문자가 Null 문자( 0x00 )가 아니면 
    {
        SerialPutChar(*str++);
 3e0:	31 96       	adiw	r30, 0x01	; 1
}

void SerialPutChar(char ch)
{
	while(!(UCSR1A & (1<<UDRE)));			// 버퍼가 빌 때를 기다림
  	UDR1 = ch;								// 버퍼에 문자를 쓴다
 3e2:	90 93 9c 00 	sts	0x009C, r25
} // 한 문자를 송신한다.

void SerialPutString(char *str)
 {

    while(*str != '\0')          // 수신된 문자가 Null 문자( 0x00 )가 아니면 
 3e6:	90 81       	ld	r25, Z
 3e8:	99 23       	and	r25, r25
 3ea:	b1 f7       	brne	.-20     	; 0x3d8 <SerialPutString+0x4>
    {
        SerialPutChar(*str++);
    }
} // 문자열을 송신한다.
 3ec:	08 95       	ret

000003ee <sendData>:
}


void sendData()
{
	SerialPutString(i_temp);
 3ee:	81 e8       	ldi	r24, 0x81	; 129
 3f0:	91 e0       	ldi	r25, 0x01	; 1
 3f2:	0e 94 ea 01 	call	0x3d4	; 0x3d4 <SerialPutString>
    OCR2 = ( 135 * Pos_CMD )/900  + 10  ;   
}

void SerialPutChar(char ch)
{
	while(!(UCSR1A & (1<<UDRE)));			// 버퍼가 빌 때를 기다림
 3f6:	80 91 9b 00 	lds	r24, 0x009B
 3fa:	85 ff       	sbrs	r24, 5
 3fc:	fc cf       	rjmp	.-8      	; 0x3f6 <sendData+0x8>
  	UDR1 = ch;								// 버퍼에 문자를 쓴다
 3fe:	8e e2       	ldi	r24, 0x2E	; 46
 400:	80 93 9c 00 	sts	0x009C, r24

void sendData()
{
	SerialPutString(i_temp);
	SerialPutChar('.');
	SerialPutString(d_temp);
 404:	82 e9       	ldi	r24, 0x92	; 146
 406:	91 e0       	ldi	r25, 0x01	; 1
 408:	0e 94 ea 01 	call	0x3d4	; 0x3d4 <SerialPutString>
    OCR2 = ( 135 * Pos_CMD )/900  + 10  ;   
}

void SerialPutChar(char ch)
{
	while(!(UCSR1A & (1<<UDRE)));			// 버퍼가 빌 때를 기다림
 40c:	80 91 9b 00 	lds	r24, 0x009B
 410:	85 ff       	sbrs	r24, 5
 412:	fc cf       	rjmp	.-8      	; 0x40c <sendData+0x1e>
  	UDR1 = ch;								// 버퍼에 문자를 쓴다
 414:	8c e2       	ldi	r24, 0x2C	; 44
 416:	80 93 9c 00 	sts	0x009C, r24
{
	SerialPutString(i_temp);
	SerialPutChar('.');
	SerialPutString(d_temp);
	SerialPutChar(',');
	SerialPutString(i_rh);
 41a:	86 e8       	ldi	r24, 0x86	; 134
 41c:	91 e0       	ldi	r25, 0x01	; 1
 41e:	0e 94 ea 01 	call	0x3d4	; 0x3d4 <SerialPutString>
    OCR2 = ( 135 * Pos_CMD )/900  + 10  ;   
}

void SerialPutChar(char ch)
{
	while(!(UCSR1A & (1<<UDRE)));			// 버퍼가 빌 때를 기다림
 422:	80 91 9b 00 	lds	r24, 0x009B
 426:	85 ff       	sbrs	r24, 5
 428:	fc cf       	rjmp	.-8      	; 0x422 <sendData+0x34>
  	UDR1 = ch;								// 버퍼에 문자를 쓴다
 42a:	8e e2       	ldi	r24, 0x2E	; 46
 42c:	80 93 9c 00 	sts	0x009C, r24
	SerialPutChar('.');
	SerialPutString(d_temp);
	SerialPutChar(',');
	SerialPutString(i_rh);
	SerialPutChar('.');
	SerialPutString(d_rh);
 430:	8b e8       	ldi	r24, 0x8B	; 139
 432:	91 e0       	ldi	r25, 0x01	; 1
 434:	0e 94 ea 01 	call	0x3d4	; 0x3d4 <SerialPutString>
    OCR2 = ( 135 * Pos_CMD )/900  + 10  ;   
}

void SerialPutChar(char ch)
{
	while(!(UCSR1A & (1<<UDRE)));			// 버퍼가 빌 때를 기다림
 438:	80 91 9b 00 	lds	r24, 0x009B
 43c:	85 ff       	sbrs	r24, 5
 43e:	fc cf       	rjmp	.-8      	; 0x438 <sendData+0x4a>
  	UDR1 = ch;								// 버퍼에 문자를 쓴다
 440:	8c e2       	ldi	r24, 0x2C	; 44
 442:	80 93 9c 00 	sts	0x009C, r24
	SerialPutChar(',');
	SerialPutString(i_rh);
	SerialPutChar('.');
	SerialPutString(d_rh);
	SerialPutChar(',');
	SerialPutString(pm);
 446:	8b e6       	ldi	r24, 0x6B	; 107
 448:	91 e0       	ldi	r25, 0x01	; 1
 44a:	0e 94 ea 01 	call	0x3d4	; 0x3d4 <SerialPutString>
    OCR2 = ( 135 * Pos_CMD )/900  + 10  ;   
}

void SerialPutChar(char ch)
{
	while(!(UCSR1A & (1<<UDRE)));			// 버퍼가 빌 때를 기다림
 44e:	80 91 9b 00 	lds	r24, 0x009B
 452:	85 ff       	sbrs	r24, 5
 454:	fc cf       	rjmp	.-8      	; 0x44e <sendData+0x60>
  	UDR1 = ch;								// 버퍼에 문자를 쓴다
 456:	8f e2       	ldi	r24, 0x2F	; 47
 458:	80 93 9c 00 	sts	0x009C, r24
	SerialPutChar('.');
	SerialPutString(d_rh);
	SerialPutChar(',');
	SerialPutString(pm);
	SerialPutChar('/');
}
 45c:	08 95       	ret

0000045e <HexToDec>:
    LcdPutchar(NumToAsc(cnumber[0]));    // 0.1 자리 디스플레이 
}


void HexToDec( unsigned short num, unsigned short radix) 
{
 45e:	0f 93       	push	r16
 460:	1f 93       	push	r17
 462:	cf 93       	push	r28
 464:	df 93       	push	r29
 466:	9c 01       	movw	r18, r24
 468:	8b 01       	movw	r16, r22
	int j ;

	for(j=0; j<5 ; j++) cnumber[j] = 0 ;
 46a:	10 92 6e 01 	sts	0x016E, r1
 46e:	10 92 6f 01 	sts	0x016F, r1
 472:	10 92 70 01 	sts	0x0170, r1
 476:	10 92 71 01 	sts	0x0171, r1
 47a:	10 92 72 01 	sts	0x0172, r1
 47e:	c0 e0       	ldi	r28, 0x00	; 0
 480:	d0 e0       	ldi	r29, 0x00	; 0

	j=0;
	do
	{
		cnumber[j++] = num % radix ; 
 482:	c9 01       	movw	r24, r18
 484:	b8 01       	movw	r22, r16
 486:	0e 94 01 05 	call	0xa02	; 0xa02 <__udivmodhi4>
 48a:	fe 01       	movw	r30, r28
 48c:	e2 59       	subi	r30, 0x92	; 146
 48e:	fe 4f       	sbci	r31, 0xFE	; 254
 490:	80 83       	st	Z, r24
 492:	21 96       	adiw	r28, 0x01	; 1
		num /= radix; 
 494:	c9 01       	movw	r24, r18
 496:	b8 01       	movw	r22, r16
 498:	0e 94 01 05 	call	0xa02	; 0xa02 <__udivmodhi4>
 49c:	9b 01       	movw	r18, r22

	} while(num);
 49e:	61 15       	cp	r22, r1
 4a0:	71 05       	cpc	r23, r1
 4a2:	79 f7       	brne	.-34     	; 0x482 <HexToDec+0x24>
} 
 4a4:	df 91       	pop	r29
 4a6:	cf 91       	pop	r28
 4a8:	1f 91       	pop	r17
 4aa:	0f 91       	pop	r16
 4ac:	08 95       	ret

000004ae <NumToAsc>:

char NumToAsc( unsigned char Num )
{
	if( Num <10 ) Num += 0x30; 
 4ae:	8a 30       	cpi	r24, 0x0A	; 10
 4b0:	10 f4       	brcc	.+4      	; 0x4b6 <NumToAsc+0x8>
 4b2:	80 5d       	subi	r24, 0xD0	; 208
 4b4:	08 95       	ret
	else          Num += 0x37; 
 4b6:	89 5c       	subi	r24, 0xC9	; 201

	return Num ;
}
 4b8:	08 95       	ret

000004ba <msec_delay>:
 4ba:	20 ea       	ldi	r18, 0xA0	; 160
 4bc:	3f e0       	ldi	r19, 0x0F	; 15
 4be:	04 c0       	rjmp	.+8      	; 0x4c8 <msec_delay+0xe>
 4c0:	f9 01       	movw	r30, r18
 4c2:	31 97       	sbiw	r30, 0x01	; 1
 4c4:	f1 f7       	brne	.-4      	; 0x4c2 <msec_delay+0x8>

void msec_delay(unsigned int n)
{	
	for(; n>0; n--)		// 1msec 시간 지연을 n회 반복
 4c6:	01 97       	sbiw	r24, 0x01	; 1
 4c8:	00 97       	sbiw	r24, 0x00	; 0
 4ca:	d1 f7       	brne	.-12     	; 0x4c0 <msec_delay+0x6>
		_delay_ms(1);		// 1msec 시간 지연
}
 4cc:	08 95       	ret

000004ce <usec_delay>:
    can be achieved.
*/
void
_delay_loop_1(uint8_t __count)
{
	__asm__ volatile (
 4ce:	35 e0       	ldi	r19, 0x05	; 5
 4d0:	04 c0       	rjmp	.+8      	; 0x4da <usec_delay+0xc>
 4d2:	23 2f       	mov	r18, r19
 4d4:	2a 95       	dec	r18
 4d6:	f1 f7       	brne	.-4      	; 0x4d4 <usec_delay+0x6>

void usec_delay(unsigned int n)
{	
	for(; n>0; n--)		// 1usec 시간 지연을 n회 반복
 4d8:	01 97       	sbiw	r24, 0x01	; 1
 4da:	00 97       	sbiw	r24, 0x00	; 0
 4dc:	d1 f7       	brne	.-12     	; 0x4d2 <usec_delay+0x4>
		_delay_us(1);		// 1usec 시간 지연
}
 4de:	08 95       	ret

000004e0 <Display_Number_LCD>:
} // 문자열을 송신한다.
  // 입력   : str - 송신한 문자열을 저장할 버퍼의 주소


void Display_Number_LCD( unsigned int num, unsigned char digit )       // 부호없는 정수형 변수를 10진수 형태로 LCD 에 디스플레이 
{
 4e0:	1f 93       	push	r17
 4e2:	16 2f       	mov	r17, r22

	HexToDec( num, 10); //10진수로 변환 
 4e4:	6a e0       	ldi	r22, 0x0A	; 10
 4e6:	70 e0       	ldi	r23, 0x00	; 0
 4e8:	0e 94 2f 02 	call	0x45e	; 0x45e <HexToDec>

	if( digit == 0 )     digit = 1 ;
 4ec:	11 23       	and	r17, r17
 4ee:	81 f1       	breq	.+96     	; 0x550 <Display_Number_LCD+0x70>
	if( digit > 5 )      digit = 5 ;
 4f0:	16 30       	cpi	r17, 0x06	; 6
 4f2:	10 f0       	brcs	.+4      	; 0x4f8 <Display_Number_LCD+0x18>
 4f4:	15 e0       	ldi	r17, 0x05	; 5
 4f6:	02 c0       	rjmp	.+4      	; 0x4fc <Display_Number_LCD+0x1c>
 
    if( digit >= 5 )     LcdPutchar( NumToAsc(cnumber[4]) );  // 10000자리 디스플레이
 4f8:	15 30       	cpi	r17, 0x05	; 5
 4fa:	49 f4       	brne	.+18     	; 0x50e <Display_Number_LCD+0x2e>
 4fc:	80 91 72 01 	lds	r24, 0x0172
	} while(num);
} 

char NumToAsc( unsigned char Num )
{
	if( Num <10 ) Num += 0x30; 
 500:	8a 30       	cpi	r24, 0x0A	; 10
 502:	10 f4       	brcc	.+4      	; 0x508 <Display_Number_LCD+0x28>
 504:	80 5d       	subi	r24, 0xD0	; 208
 506:	01 c0       	rjmp	.+2      	; 0x50a <Display_Number_LCD+0x2a>
	else          Num += 0x37; 
 508:	89 5c       	subi	r24, 0xC9	; 201
	HexToDec( num, 10); //10진수로 변환 

	if( digit == 0 )     digit = 1 ;
	if( digit > 5 )      digit = 5 ;
 
    if( digit >= 5 )     LcdPutchar( NumToAsc(cnumber[4]) );  // 10000자리 디스플레이
 50a:	0e 94 b3 00 	call	0x166	; 0x166 <LcdPutchar>
	
	if( digit >= 4 )     LcdPutchar(NumToAsc(cnumber[3]));    // 1000자리 디스플레이 
 50e:	14 30       	cpi	r17, 0x04	; 4
 510:	48 f0       	brcs	.+18     	; 0x524 <Display_Number_LCD+0x44>
 512:	80 91 71 01 	lds	r24, 0x0171
	} while(num);
} 

char NumToAsc( unsigned char Num )
{
	if( Num <10 ) Num += 0x30; 
 516:	8a 30       	cpi	r24, 0x0A	; 10
 518:	10 f4       	brcc	.+4      	; 0x51e <Display_Number_LCD+0x3e>
 51a:	80 5d       	subi	r24, 0xD0	; 208
 51c:	01 c0       	rjmp	.+2      	; 0x520 <Display_Number_LCD+0x40>
	else          Num += 0x37; 
 51e:	89 5c       	subi	r24, 0xC9	; 201
	if( digit == 0 )     digit = 1 ;
	if( digit > 5 )      digit = 5 ;
 
    if( digit >= 5 )     LcdPutchar( NumToAsc(cnumber[4]) );  // 10000자리 디스플레이
	
	if( digit >= 4 )     LcdPutchar(NumToAsc(cnumber[3]));    // 1000자리 디스플레이 
 520:	0e 94 b3 00 	call	0x166	; 0x166 <LcdPutchar>

	if( digit >= 3 )     LcdPutchar(NumToAsc(cnumber[2]));    // 100자리 디스플레이 
 524:	13 30       	cpi	r17, 0x03	; 3
 526:	48 f0       	brcs	.+18     	; 0x53a <Display_Number_LCD+0x5a>
 528:	80 91 70 01 	lds	r24, 0x0170
	} while(num);
} 

char NumToAsc( unsigned char Num )
{
	if( Num <10 ) Num += 0x30; 
 52c:	8a 30       	cpi	r24, 0x0A	; 10
 52e:	10 f4       	brcc	.+4      	; 0x534 <Display_Number_LCD+0x54>
 530:	80 5d       	subi	r24, 0xD0	; 208
 532:	01 c0       	rjmp	.+2      	; 0x536 <Display_Number_LCD+0x56>
	else          Num += 0x37; 
 534:	89 5c       	subi	r24, 0xC9	; 201
 
    if( digit >= 5 )     LcdPutchar( NumToAsc(cnumber[4]) );  // 10000자리 디스플레이
	
	if( digit >= 4 )     LcdPutchar(NumToAsc(cnumber[3]));    // 1000자리 디스플레이 

	if( digit >= 3 )     LcdPutchar(NumToAsc(cnumber[2]));    // 100자리 디스플레이 
 536:	0e 94 b3 00 	call	0x166	; 0x166 <LcdPutchar>

	if( digit >= 2 )     LcdPutchar(NumToAsc(cnumber[1]));    // 10자리 디스플레이
 53a:	11 30       	cpi	r17, 0x01	; 1
 53c:	49 f0       	breq	.+18     	; 0x550 <Display_Number_LCD+0x70>
 53e:	80 91 6f 01 	lds	r24, 0x016F
	} while(num);
} 

char NumToAsc( unsigned char Num )
{
	if( Num <10 ) Num += 0x30; 
 542:	8a 30       	cpi	r24, 0x0A	; 10
 544:	10 f4       	brcc	.+4      	; 0x54a <Display_Number_LCD+0x6a>
 546:	80 5d       	subi	r24, 0xD0	; 208
 548:	01 c0       	rjmp	.+2      	; 0x54c <Display_Number_LCD+0x6c>
	else          Num += 0x37; 
 54a:	89 5c       	subi	r24, 0xC9	; 201
	
	if( digit >= 4 )     LcdPutchar(NumToAsc(cnumber[3]));    // 1000자리 디스플레이 

	if( digit >= 3 )     LcdPutchar(NumToAsc(cnumber[2]));    // 100자리 디스플레이 

	if( digit >= 2 )     LcdPutchar(NumToAsc(cnumber[1]));    // 10자리 디스플레이
 54c:	0e 94 b3 00 	call	0x166	; 0x166 <LcdPutchar>

	if( digit >= 1 )     LcdPutchar(NumToAsc(cnumber[0]));    //  1자리 디스플레이
 550:	80 91 6e 01 	lds	r24, 0x016E
	} while(num);
} 

char NumToAsc( unsigned char Num )
{
	if( Num <10 ) Num += 0x30; 
 554:	8a 30       	cpi	r24, 0x0A	; 10
 556:	10 f4       	brcc	.+4      	; 0x55c <Display_Number_LCD+0x7c>
 558:	80 5d       	subi	r24, 0xD0	; 208
 55a:	01 c0       	rjmp	.+2      	; 0x55e <Display_Number_LCD+0x7e>
	else          Num += 0x37; 
 55c:	89 5c       	subi	r24, 0xC9	; 201

	if( digit >= 3 )     LcdPutchar(NumToAsc(cnumber[2]));    // 100자리 디스플레이 

	if( digit >= 2 )     LcdPutchar(NumToAsc(cnumber[1]));    // 10자리 디스플레이

	if( digit >= 1 )     LcdPutchar(NumToAsc(cnumber[0]));    //  1자리 디스플레이
 55e:	0e 94 b3 00 	call	0x166	; 0x166 <LcdPutchar>

}
 562:	1f 91       	pop	r17
 564:	08 95       	ret

00000566 <Display_TMP_LCD>:


void Display_TMP_LCD( unsigned int tp  )       // 온도를 10진수 형태로 LCD 에 디스플레이 
{

	HexToDec( tp, 10); //10진수로 변환 
 566:	6a e0       	ldi	r22, 0x0A	; 10
 568:	70 e0       	ldi	r23, 0x00	; 0
 56a:	0e 94 2f 02 	call	0x45e	; 0x45e <HexToDec>

    LcdPutchar(NumToAsc(cnumber[2]) );   // 10자리 디스플레이
 56e:	80 91 70 01 	lds	r24, 0x0170
	} while(num);
} 

char NumToAsc( unsigned char Num )
{
	if( Num <10 ) Num += 0x30; 
 572:	8a 30       	cpi	r24, 0x0A	; 10
 574:	10 f4       	brcc	.+4      	; 0x57a <Display_TMP_LCD+0x14>
 576:	80 5d       	subi	r24, 0xD0	; 208
 578:	01 c0       	rjmp	.+2      	; 0x57c <Display_TMP_LCD+0x16>
	else          Num += 0x37; 
 57a:	89 5c       	subi	r24, 0xC9	; 201
void Display_TMP_LCD( unsigned int tp  )       // 온도를 10진수 형태로 LCD 에 디스플레이 
{

	HexToDec( tp, 10); //10진수로 변환 

    LcdPutchar(NumToAsc(cnumber[2]) );   // 10자리 디스플레이
 57c:	0e 94 b3 00 	call	0x166	; 0x166 <LcdPutchar>
	
    LcdPutchar(NumToAsc(cnumber[1]));    // 1자리 디스플레이 
 580:	80 91 6f 01 	lds	r24, 0x016F
	} while(num);
} 

char NumToAsc( unsigned char Num )
{
	if( Num <10 ) Num += 0x30; 
 584:	8a 30       	cpi	r24, 0x0A	; 10
 586:	10 f4       	brcc	.+4      	; 0x58c <Display_TMP_LCD+0x26>
 588:	80 5d       	subi	r24, 0xD0	; 208
 58a:	01 c0       	rjmp	.+2      	; 0x58e <Display_TMP_LCD+0x28>
	else          Num += 0x37; 
 58c:	89 5c       	subi	r24, 0xC9	; 201

	HexToDec( tp, 10); //10진수로 변환 

    LcdPutchar(NumToAsc(cnumber[2]) );   // 10자리 디스플레이
	
    LcdPutchar(NumToAsc(cnumber[1]));    // 1자리 디스플레이 
 58e:	0e 94 b3 00 	call	0x166	; 0x166 <LcdPutchar>

    LcdPuts( ".");                       // 소숫점(.) 디스플레이 
 592:	80 e0       	ldi	r24, 0x00	; 0
 594:	91 e0       	ldi	r25, 0x01	; 1
 596:	0e 94 cf 00 	call	0x19e	; 0x19e <LcdPuts>

    LcdPutchar(NumToAsc(cnumber[0]));    // 0.1 자리 디스플레이 
 59a:	80 91 6e 01 	lds	r24, 0x016E
	} while(num);
} 

char NumToAsc( unsigned char Num )
{
	if( Num <10 ) Num += 0x30; 
 59e:	8a 30       	cpi	r24, 0x0A	; 10
 5a0:	10 f4       	brcc	.+4      	; 0x5a6 <Display_TMP_LCD+0x40>
 5a2:	80 5d       	subi	r24, 0xD0	; 208
 5a4:	01 c0       	rjmp	.+2      	; 0x5a8 <Display_TMP_LCD+0x42>
	else          Num += 0x37; 
 5a6:	89 5c       	subi	r24, 0xC9	; 201
	
    LcdPutchar(NumToAsc(cnumber[1]));    // 1자리 디스플레이 

    LcdPuts( ".");                       // 소숫점(.) 디스플레이 

    LcdPutchar(NumToAsc(cnumber[0]));    // 0.1 자리 디스플레이 
 5a8:	0e 94 b3 00 	call	0x166	; 0x166 <LcdPutchar>
}
 5ac:	08 95       	ret

000005ae <getDHT>:
	SerialPutChar('/');
}

void getDHT()
{
	Request();		/* send start pulse */
 5ae:	0e 94 67 00 	call	0xce	; 0xce <Request>
	Response();		/* receive response */
 5b2:	0e 94 77 00 	call	0xee	; 0xee <Response>
	I_RH=Receive_data();	/* store first eight bit in I_RH */
 5b6:	0e 94 7f 00 	call	0xfe	; 0xfe <Receive_data>
 5ba:	80 93 98 01 	sts	0x0198, r24
	D_RH=Receive_data();	/* store next eight bit in D_RH */
 5be:	0e 94 7f 00 	call	0xfe	; 0xfe <Receive_data>
 5c2:	80 93 90 01 	sts	0x0190, r24
	I_Temp=Receive_data();	/* store next eight bit in I_Temp */
 5c6:	0e 94 7f 00 	call	0xfe	; 0xfe <Receive_data>
 5ca:	80 93 97 01 	sts	0x0197, r24
	D_Temp=Receive_data();	/* store next eight bit in D_Temp */
 5ce:	0e 94 7f 00 	call	0xfe	; 0xfe <Receive_data>
 5d2:	80 93 99 01 	sts	0x0199, r24
	CheckSum=Receive_data();/* store next eight bit in CheckSum */
 5d6:	0e 94 7f 00 	call	0xfe	; 0xfe <Receive_data>
 5da:	80 93 91 01 	sts	0x0191, r24
	
	if ((I_RH + D_RH + I_Temp + D_Temp) != CheckSum)
 5de:	40 91 90 01 	lds	r20, 0x0190
 5e2:	20 91 98 01 	lds	r18, 0x0198
 5e6:	30 e0       	ldi	r19, 0x00	; 0
 5e8:	24 0f       	add	r18, r20
 5ea:	31 1d       	adc	r19, r1
 5ec:	40 91 97 01 	lds	r20, 0x0197
 5f0:	24 0f       	add	r18, r20
 5f2:	31 1d       	adc	r19, r1
 5f4:	40 91 99 01 	lds	r20, 0x0199
 5f8:	24 0f       	add	r18, r20
 5fa:	31 1d       	adc	r19, r1
 5fc:	90 e0       	ldi	r25, 0x00	; 0
 5fe:	28 17       	cp	r18, r24
 600:	39 07       	cpc	r19, r25
 602:	39 f0       	breq	.+14     	; 0x612 <getDHT+0x64>
	{
		LcdMove(0,0);
 604:	80 e0       	ldi	r24, 0x00	; 0
 606:	60 e0       	ldi	r22, 0x00	; 0
 608:	0e 94 25 01 	call	0x24a	; 0x24a <LcdMove>
		LcdPuts("Error");
 60c:	82 e0       	ldi	r24, 0x02	; 2
 60e:	91 e0       	ldi	r25, 0x01	; 1
 610:	85 c0       	rjmp	.+266    	; 0x71c <getDHT+0x16e>
	}
		
	else
	{	
		LcdCommand(ALLCLR);
 612:	81 e0       	ldi	r24, 0x01	; 1
 614:	0e 94 ec 00 	call	0x1d8	; 0x1d8 <LcdCommand>
		LcdMove(0,0);  
 618:	80 e0       	ldi	r24, 0x00	; 0
 61a:	60 e0       	ldi	r22, 0x00	; 0
 61c:	0e 94 25 01 	call	0x24a	; 0x24a <LcdMove>
		LcdPuts("HM=");
 620:	88 e0       	ldi	r24, 0x08	; 8
 622:	91 e0       	ldi	r25, 0x01	; 1
 624:	0e 94 cf 00 	call	0x19e	; 0x19e <LcdPuts>
		LcdMove(0,8); 
 628:	80 e0       	ldi	r24, 0x00	; 0
 62a:	68 e0       	ldi	r22, 0x08	; 8
 62c:	0e 94 25 01 	call	0x24a	; 0x24a <LcdMove>
		LcdPuts("TP= ");
 630:	8c e0       	ldi	r24, 0x0C	; 12
 632:	91 e0       	ldi	r25, 0x01	; 1
 634:	0e 94 cf 00 	call	0x19e	; 0x19e <LcdPuts>
		LcdMove(1,0);
 638:	81 e0       	ldi	r24, 0x01	; 1
 63a:	60 e0       	ldi	r22, 0x00	; 0
 63c:	0e 94 25 01 	call	0x24a	; 0x24a <LcdMove>
		LcdPuts("Dust=");
 640:	81 e1       	ldi	r24, 0x11	; 17
 642:	91 e0       	ldi	r25, 0x01	; 1
 644:	0e 94 cf 00 	call	0x19e	; 0x19e <LcdPuts>
		LcdMove(1,5);
 648:	81 e0       	ldi	r24, 0x01	; 1
 64a:	65 e0       	ldi	r22, 0x05	; 5
 64c:	0e 94 25 01 	call	0x24a	; 0x24a <LcdMove>
		LcdPuts(pm);
 650:	8b e6       	ldi	r24, 0x6B	; 107
 652:	91 e0       	ldi	r25, 0x01	; 1
 654:	0e 94 cf 00 	call	0x19e	; 0x19e <LcdPuts>

		itoa(I_RH,i_rh,10);
 658:	80 91 98 01 	lds	r24, 0x0198
 65c:	90 e0       	ldi	r25, 0x00	; 0
 65e:	66 e8       	ldi	r22, 0x86	; 134
 660:	71 e0       	ldi	r23, 0x01	; 1
 662:	4a e0       	ldi	r20, 0x0A	; 10
 664:	50 e0       	ldi	r21, 0x00	; 0
 666:	0e 94 28 05 	call	0xa50	; 0xa50 <itoa>
		LcdMove(0,3);
 66a:	80 e0       	ldi	r24, 0x00	; 0
 66c:	63 e0       	ldi	r22, 0x03	; 3
 66e:	0e 94 25 01 	call	0x24a	; 0x24a <LcdMove>
		LcdPuts(i_rh);
 672:	86 e8       	ldi	r24, 0x86	; 134
 674:	91 e0       	ldi	r25, 0x01	; 1
 676:	0e 94 cf 00 	call	0x19e	; 0x19e <LcdPuts>
		LcdMove(0,5);
 67a:	80 e0       	ldi	r24, 0x00	; 0
 67c:	65 e0       	ldi	r22, 0x05	; 5
 67e:	0e 94 25 01 	call	0x24a	; 0x24a <LcdMove>
		LcdPuts(".");
 682:	80 e0       	ldi	r24, 0x00	; 0
 684:	91 e0       	ldi	r25, 0x01	; 1
 686:	0e 94 cf 00 	call	0x19e	; 0x19e <LcdPuts>
			
		itoa(D_RH,d_rh,10);
 68a:	80 91 90 01 	lds	r24, 0x0190
 68e:	90 e0       	ldi	r25, 0x00	; 0
 690:	6b e8       	ldi	r22, 0x8B	; 139
 692:	71 e0       	ldi	r23, 0x01	; 1
 694:	4a e0       	ldi	r20, 0x0A	; 10
 696:	50 e0       	ldi	r21, 0x00	; 0
 698:	0e 94 28 05 	call	0xa50	; 0xa50 <itoa>
		LcdMove(0,6);
 69c:	80 e0       	ldi	r24, 0x00	; 0
 69e:	66 e0       	ldi	r22, 0x06	; 6
 6a0:	0e 94 25 01 	call	0x24a	; 0x24a <LcdMove>
		LcdPuts(d_rh);
 6a4:	8b e8       	ldi	r24, 0x8B	; 139
 6a6:	91 e0       	ldi	r25, 0x01	; 1
 6a8:	0e 94 cf 00 	call	0x19e	; 0x19e <LcdPuts>
		LcdMove(0,7);
 6ac:	80 e0       	ldi	r24, 0x00	; 0
 6ae:	67 e0       	ldi	r22, 0x07	; 7
 6b0:	0e 94 25 01 	call	0x24a	; 0x24a <LcdMove>
		LcdPuts("%");
 6b4:	87 e1       	ldi	r24, 0x17	; 23
 6b6:	91 e0       	ldi	r25, 0x01	; 1
 6b8:	0e 94 cf 00 	call	0x19e	; 0x19e <LcdPuts>

		//////////// 습도 Display

		itoa(I_Temp,i_temp,10);
 6bc:	80 91 97 01 	lds	r24, 0x0197
 6c0:	90 e0       	ldi	r25, 0x00	; 0
 6c2:	61 e8       	ldi	r22, 0x81	; 129
 6c4:	71 e0       	ldi	r23, 0x01	; 1
 6c6:	4a e0       	ldi	r20, 0x0A	; 10
 6c8:	50 e0       	ldi	r21, 0x00	; 0
 6ca:	0e 94 28 05 	call	0xa50	; 0xa50 <itoa>
		LcdMove(0,11);
 6ce:	80 e0       	ldi	r24, 0x00	; 0
 6d0:	6b e0       	ldi	r22, 0x0B	; 11
 6d2:	0e 94 25 01 	call	0x24a	; 0x24a <LcdMove>
		LcdPuts(i_temp);
 6d6:	81 e8       	ldi	r24, 0x81	; 129
 6d8:	91 e0       	ldi	r25, 0x01	; 1
 6da:	0e 94 cf 00 	call	0x19e	; 0x19e <LcdPuts>
		LcdMove(0,13);
 6de:	80 e0       	ldi	r24, 0x00	; 0
 6e0:	6d e0       	ldi	r22, 0x0D	; 13
 6e2:	0e 94 25 01 	call	0x24a	; 0x24a <LcdMove>
		LcdPuts(".");
 6e6:	80 e0       	ldi	r24, 0x00	; 0
 6e8:	91 e0       	ldi	r25, 0x01	; 1
 6ea:	0e 94 cf 00 	call	0x19e	; 0x19e <LcdPuts>
			
		itoa(D_Temp,d_temp,10);
 6ee:	80 91 99 01 	lds	r24, 0x0199
 6f2:	90 e0       	ldi	r25, 0x00	; 0
 6f4:	62 e9       	ldi	r22, 0x92	; 146
 6f6:	71 e0       	ldi	r23, 0x01	; 1
 6f8:	4a e0       	ldi	r20, 0x0A	; 10
 6fa:	50 e0       	ldi	r21, 0x00	; 0
 6fc:	0e 94 28 05 	call	0xa50	; 0xa50 <itoa>
		LcdMove(0,14);
 700:	80 e0       	ldi	r24, 0x00	; 0
 702:	6e e0       	ldi	r22, 0x0E	; 14
 704:	0e 94 25 01 	call	0x24a	; 0x24a <LcdMove>
		LcdPuts(d_temp);
 708:	82 e9       	ldi	r24, 0x92	; 146
 70a:	91 e0       	ldi	r25, 0x01	; 1
 70c:	0e 94 cf 00 	call	0x19e	; 0x19e <LcdPuts>
		LcdMove(0,15);
 710:	80 e0       	ldi	r24, 0x00	; 0
 712:	6f e0       	ldi	r22, 0x0F	; 15
 714:	0e 94 25 01 	call	0x24a	; 0x24a <LcdMove>
		LcdPuts("C");
 718:	89 e1       	ldi	r24, 0x19	; 25
 71a:	91 e0       	ldi	r25, 0x01	; 1
 71c:	0e 94 cf 00 	call	0x19e	; 0x19e <LcdPuts>
    milliseconds can be achieved.
 */
void
_delay_loop_2(uint16_t __count)
{
	__asm__ volatile (
 720:	80 e4       	ldi	r24, 0x40	; 64
 722:	9c e9       	ldi	r25, 0x9C	; 156
 724:	01 97       	sbiw	r24, 0x01	; 1
 726:	f1 f7       	brne	.-4      	; 0x724 <getDHT+0x176>
		
	}
				
	_delay_ms(10);
}
 728:	08 95       	ret

0000072a <__vector_16>:
		cmd_data = 0xFF;
	}
} 

ISR(TIMER0_OVF_vect)   // Timer0 overflow interrupt( 10 msec)  service routine
{
 72a:	1f 92       	push	r1
 72c:	0f 92       	push	r0
 72e:	0f b6       	in	r0, 0x3f	; 63
 730:	0f 92       	push	r0
 732:	0b b6       	in	r0, 0x3b	; 59
 734:	0f 92       	push	r0
 736:	11 24       	eor	r1, r1
 738:	2f 93       	push	r18
 73a:	3f 93       	push	r19
 73c:	4f 93       	push	r20
 73e:	5f 93       	push	r21
 740:	6f 93       	push	r22
 742:	7f 93       	push	r23
 744:	8f 93       	push	r24
 746:	9f 93       	push	r25
 748:	af 93       	push	r26
 74a:	bf 93       	push	r27
 74c:	ef 93       	push	r30
 74e:	ff 93       	push	r31

	static unsigned short  time_index = 0, send_time_index = 0;

    TCNT0 = 256 - 156;       //  내부클럭주기 = 1024/ (16x10^6) = 64 usec,  
 750:	84 e6       	ldi	r24, 0x64	; 100
 752:	82 bf       	out	0x32, r24	; 50
                             //  오버플로인터럽트 주기 = 10msec
                             //  156 = 10msec/ 64usec

    time_index++ ; 
 754:	80 91 7d 01 	lds	r24, 0x017D
 758:	90 91 7e 01 	lds	r25, 0x017E
 75c:	01 96       	adiw	r24, 0x01	; 1
 75e:	90 93 7e 01 	sts	0x017E, r25
 762:	80 93 7d 01 	sts	0x017D, r24


    if( time_index == 200 )    // 샘플링주기 10msec
 766:	88 3c       	cpi	r24, 0xC8	; 200
 768:	91 05       	cpc	r25, r1
 76a:	41 f4       	brne	.+16     	; 0x77c <__vector_16+0x52>
    {       	
	   	getDHT();
 76c:	0e 94 d7 02 	call	0x5ae	; 0x5ae <getDHT>
	   	sendData();
 770:	0e 94 f7 01 	call	0x3ee	; 0x3ee <sendData>
		
		time_index = 0; 
 774:	10 92 7e 01 	sts	0x017E, r1
 778:	10 92 7d 01 	sts	0x017D, r1
   }
}
 77c:	ff 91       	pop	r31
 77e:	ef 91       	pop	r30
 780:	bf 91       	pop	r27
 782:	af 91       	pop	r26
 784:	9f 91       	pop	r25
 786:	8f 91       	pop	r24
 788:	7f 91       	pop	r23
 78a:	6f 91       	pop	r22
 78c:	5f 91       	pop	r21
 78e:	4f 91       	pop	r20
 790:	3f 91       	pop	r19
 792:	2f 91       	pop	r18
 794:	0f 90       	pop	r0
 796:	0b be       	out	0x3b, r0	; 59
 798:	0f 90       	pop	r0
 79a:	0f be       	out	0x3f, r0	; 63
 79c:	0f 90       	pop	r0
 79e:	1f 90       	pop	r1
 7a0:	18 95       	reti

000007a2 <__vector_18>:

ISR( USART0_RX_vect)
{
 7a2:	1f 92       	push	r1
 7a4:	0f 92       	push	r0
 7a6:	0f b6       	in	r0, 0x3f	; 63
 7a8:	0f 92       	push	r0
 7aa:	0b b6       	in	r0, 0x3b	; 59
 7ac:	0f 92       	push	r0
 7ae:	11 24       	eor	r1, r1
 7b0:	2f 93       	push	r18
 7b2:	3f 93       	push	r19
 7b4:	4f 93       	push	r20
 7b6:	5f 93       	push	r21
 7b8:	6f 93       	push	r22
 7ba:	7f 93       	push	r23
 7bc:	8f 93       	push	r24
 7be:	9f 93       	push	r25
 7c0:	af 93       	push	r26
 7c2:	bf 93       	push	r27
 7c4:	ef 93       	push	r30
 7c6:	ff 93       	push	r31
	dust[dust_count] = UDR0;
 7c8:	80 91 7b 01 	lds	r24, 0x017B
 7cc:	9c b1       	in	r25, 0x0c	; 12
 7ce:	e8 2f       	mov	r30, r24
 7d0:	f0 e0       	ldi	r31, 0x00	; 0
 7d2:	e7 5b       	subi	r30, 0xB7	; 183
 7d4:	fe 4f       	sbci	r31, 0xFE	; 254
 7d6:	90 83       	st	Z, r25
	dust_count ++;
 7d8:	8f 5f       	subi	r24, 0xFF	; 255
 7da:	80 93 7b 01 	sts	0x017B, r24
	static unsigned char first = 0;
	if(dust_count >= 32)
 7de:	80 32       	cpi	r24, 0x20	; 32
 7e0:	08 f4       	brcc	.+2      	; 0x7e4 <__vector_18+0x42>
 7e2:	43 c0       	rjmp	.+134    	; 0x86a <__vector_18+0xc8>
	{
		if((dust[0] == 0x42)&&(dust[1] == 0x4d))
 7e4:	80 91 49 01 	lds	r24, 0x0149
 7e8:	82 34       	cpi	r24, 0x42	; 66
 7ea:	e9 f5       	brne	.+122    	; 0x866 <__vector_18+0xc4>
 7ec:	80 91 4a 01 	lds	r24, 0x014A
 7f0:	8d 34       	cpi	r24, 0x4D	; 77
 7f2:	c9 f5       	brne	.+114    	; 0x866 <__vector_18+0xc4>
		{
			pm10 = (dust[14] << 8) + (dust[15]);
 7f4:	90 91 57 01 	lds	r25, 0x0157
 7f8:	80 e0       	ldi	r24, 0x00	; 0
 7fa:	20 91 58 01 	lds	r18, 0x0158
 7fe:	ac 01       	movw	r20, r24
 800:	42 0f       	add	r20, r18
 802:	51 1d       	adc	r21, r1
 804:	9a 01       	movw	r18, r20
 806:	50 93 80 01 	sts	0x0180, r21
 80a:	40 93 7f 01 	sts	0x017F, r20
			
			if(first == 0)
 80e:	80 91 7c 01 	lds	r24, 0x017C
 812:	88 23       	and	r24, r24
 814:	21 f4       	brne	.+8      	; 0x81e <__vector_18+0x7c>
			{
				first = 1;
 816:	81 e0       	ldi	r24, 0x01	; 1
 818:	80 93 7c 01 	sts	0x017C, r24
 81c:	0e c0       	rjmp	.+28     	; 0x83a <__vector_18+0x98>
				pm10_old = pm10;
			}
			else
			{
				if((pm10 - pm10_old) > 20)
 81e:	40 91 69 01 	lds	r20, 0x0169
 822:	50 91 6a 01 	lds	r21, 0x016A
 826:	c9 01       	movw	r24, r18
 828:	84 1b       	sub	r24, r20
 82a:	95 0b       	sbc	r25, r21
 82c:	45 97       	sbiw	r24, 0x15	; 21
 82e:	28 f0       	brcs	.+10     	; 0x83a <__vector_18+0x98>
				{
					pm10 = pm10_old;
 830:	50 93 80 01 	sts	0x0180, r21
 834:	40 93 7f 01 	sts	0x017F, r20
 838:	04 c0       	rjmp	.+8      	; 0x842 <__vector_18+0xa0>
				}
				else
				{
					pm10_old = pm10;
 83a:	30 93 6a 01 	sts	0x016A, r19
 83e:	20 93 69 01 	sts	0x0169, r18
				}
			}
			itoa(pm10,pm,10);
 842:	80 91 7f 01 	lds	r24, 0x017F
 846:	90 91 80 01 	lds	r25, 0x0180
 84a:	6b e6       	ldi	r22, 0x6B	; 107
 84c:	71 e0       	ldi	r23, 0x01	; 1
 84e:	4a e0       	ldi	r20, 0x0A	; 10
 850:	50 e0       	ldi	r21, 0x00	; 0
 852:	0e 94 28 05 	call	0xa50	; 0xa50 <itoa>

			LcdMove(1,5);
 856:	81 e0       	ldi	r24, 0x01	; 1
 858:	65 e0       	ldi	r22, 0x05	; 5
 85a:	0e 94 25 01 	call	0x24a	; 0x24a <LcdMove>
			LcdPuts(pm);
 85e:	8b e6       	ldi	r24, 0x6B	; 107
 860:	91 e0       	ldi	r25, 0x01	; 1
 862:	0e 94 cf 00 	call	0x19e	; 0x19e <LcdPuts>
		}
		dust_count = 0 ;		
 866:	10 92 7b 01 	sts	0x017B, r1
	}
}
 86a:	ff 91       	pop	r31
 86c:	ef 91       	pop	r30
 86e:	bf 91       	pop	r27
 870:	af 91       	pop	r26
 872:	9f 91       	pop	r25
 874:	8f 91       	pop	r24
 876:	7f 91       	pop	r23
 878:	6f 91       	pop	r22
 87a:	5f 91       	pop	r21
 87c:	4f 91       	pop	r20
 87e:	3f 91       	pop	r19
 880:	2f 91       	pop	r18
 882:	0f 90       	pop	r0
 884:	0b be       	out	0x3b, r0	; 59
 886:	0f 90       	pop	r0
 888:	0f be       	out	0x3f, r0	; 63
 88a:	0f 90       	pop	r0
 88c:	1f 90       	pop	r1
 88e:	18 95       	reti

00000890 <init>:
{
	DDRB |= 0x80;    //  PWM 포트: OC2( PB7 ) 출력설정
}
void init()
{
	LcdInit();
 890:	0e 94 35 01 	call	0x26a	; 0x26a <LcdInit>

	LcdCommand(ALLCLR);
 894:	81 e0       	ldi	r24, 0x01	; 1
 896:	0e 94 ec 00 	call	0x1d8	; 0x1d8 <LcdCommand>
	LcdMove(0,0);  
 89a:	80 e0       	ldi	r24, 0x00	; 0
 89c:	60 e0       	ldi	r22, 0x00	; 0
 89e:	0e 94 25 01 	call	0x24a	; 0x24a <LcdMove>
	LcdPuts("HM=");
 8a2:	88 e0       	ldi	r24, 0x08	; 8
 8a4:	91 e0       	ldi	r25, 0x01	; 1
 8a6:	0e 94 cf 00 	call	0x19e	; 0x19e <LcdPuts>
	LcdMove(0,8); 
 8aa:	80 e0       	ldi	r24, 0x00	; 0
 8ac:	68 e0       	ldi	r22, 0x08	; 8
 8ae:	0e 94 25 01 	call	0x24a	; 0x24a <LcdMove>
	LcdPuts("TP= ");
 8b2:	8c e0       	ldi	r24, 0x0C	; 12
 8b4:	91 e0       	ldi	r25, 0x01	; 1
 8b6:	0e 94 cf 00 	call	0x19e	; 0x19e <LcdPuts>
	LcdMove(1,0);
 8ba:	81 e0       	ldi	r24, 0x01	; 1
 8bc:	60 e0       	ldi	r22, 0x00	; 0
 8be:	0e 94 25 01 	call	0x24a	; 0x24a <LcdMove>
	LcdPuts("Dust=");
 8c2:	81 e1       	ldi	r24, 0x11	; 17
 8c4:	91 e0       	ldi	r25, 0x01	; 1
 8c6:	0e 94 cf 00 	call	0x19e	; 0x19e <LcdPuts>


/**** Timer0 Overflow Interrupt  ******/

	TCCR0 = 0x00; 
 8ca:	13 be       	out	0x33, r1	; 51
    TCNT0 = 256 - 100;       //  내부클럭주기 = 8/ (16x10^6) = 0.5 usec,  
 8cc:	8c e9       	ldi	r24, 0x9C	; 156
 8ce:	82 bf       	out	0x32, r24	; 50
                             //  오버플로인터럽트 주기 = 50usec
                             //  156 = 50usec/ 0.5use

	TIMSK = 0x01;  // Timer0 overflow interrupt enable 
 8d0:	81 e0       	ldi	r24, 0x01	; 1
 8d2:	87 bf       	out	0x37, r24	; 55
	
	TCCR0 |= 0x07; // Clock Prescaler N=1024 (Timer 0 Start)
 8d4:	83 b7       	in	r24, 0x33	; 51
 8d6:	87 60       	ori	r24, 0x07	; 7
 8d8:	83 bf       	out	0x33, r24	; 51

/**** Motor PWM  ******/

	TCCR2 |= 0x68;   //  Trigger signal (OC2)   발생 :  WGM20(bit6)=1,  WGM21(bit3)=1,  COM21(bit5)=1, COM20(bit4)=0 ,  
 8da:	85 b5       	in	r24, 0x25	; 37
 8dc:	88 66       	ori	r24, 0x68	; 104
 8de:	85 bd       	out	0x25, r24	; 37
	TCCR2 |= 0x05;   //  1024분주,  내부클럭주기 = 64usec  : CS22(bit2) = 1, CS21(bit1) = 0,  CS20(bit0) = 1 
 8e0:	85 b5       	in	r24, 0x25	; 37
 8e2:	85 60       	ori	r24, 0x05	; 5
 8e4:	85 bd       	out	0x25, r24	; 37

	Pos_CMD = 90 ;
 8e6:	8a e5       	ldi	r24, 0x5A	; 90
 8e8:	80 93 73 01 	sts	0x0173, r24
    OCR2 = ( 135 * Pos_CMD )/900 + 10 ; 
 8ec:	90 91 73 01 	lds	r25, 0x0173
 8f0:	87 e8       	ldi	r24, 0x87	; 135
 8f2:	98 9f       	mul	r25, r24
 8f4:	c0 01       	movw	r24, r0
 8f6:	11 24       	eor	r1, r1
 8f8:	64 e8       	ldi	r22, 0x84	; 132
 8fa:	73 e0       	ldi	r23, 0x03	; 3
 8fc:	0e 94 15 05 	call	0xa2a	; 0xa2a <__divmodhi4>
 900:	66 5f       	subi	r22, 0xF6	; 246
 902:	63 bd       	out	0x23, r22	; 35

	sei();         // Global Interrupt Enable 
 904:	78 94       	sei
}
 906:	08 95       	ret

00000908 <main>:
void pin_init();		// 핀 설정 초기화
void init();			// 초기 설정
static volatile unsigned char cnumber[5] = {0, 0, 0, 0, 0}; 

int main() 
{   
 908:	cf 93       	push	r28
 90a:	df 93       	push	r29
}


void pin_init()
{
	DDRB |= 0x80;    //  PWM 포트: OC2( PB7 ) 출력설정
 90c:	bf 9a       	sbi	0x17, 7	; 23
{   
	char eq_count1=0, eq_count2=0, cmd_data = 0xFF  ;  	  
    unsigned char i=0 ;
	
	pin_init();		  // Pin 초기화
	init();			  // Interrupt , Timer, Register 초기화 
 90e:	0e 94 48 04 	call	0x890	; 0x890 <init>
	init_serial() ;   // Serial Port (USART0, 1) 초기화
 912:	0e 94 98 01 	call	0x330	; 0x330 <init_serial>
	Servo_SET();
 916:	0e 94 d2 01 	call	0x3a4	; 0x3a4 <Servo_SET>
 91a:	c0 ea       	ldi	r28, 0xA0	; 160
 91c:	df e0       	ldi	r29, 0x0F	; 15
	while (1) 
	{ 
		if( new_recv_flag == 1)
 91e:	80 91 78 01 	lds	r24, 0x0178
 922:	81 30       	cpi	r24, 0x01	; 1
 924:	09 f0       	breq	.+2      	; 0x928 <main+0x20>
 926:	6a c0       	rjmp	.+212    	; 0x9fc <main+0xf4>
 928:	30 e0       	ldi	r19, 0x00	; 0
 92a:	40 e0       	ldi	r20, 0x00	; 0
 92c:	20 e0       	ldi	r18, 0x00	; 0
 92e:	18 c0       	rjmp	.+48     	; 0x960 <main+0x58>
		{
			for( i=0; i < recv_cnt ; i++) 
			{
				if( recv_data[i] == Cmd_Message_1[i] ) eq_count1++ ;
 930:	a2 2f       	mov	r26, r18
 932:	b0 e0       	ldi	r27, 0x00	; 0
 934:	fd 01       	movw	r30, r26
 936:	eb 58       	subi	r30, 0x8B	; 139
 938:	fe 4f       	sbci	r31, 0xFE	; 254
 93a:	90 81       	ld	r25, Z
 93c:	fd 01       	movw	r30, r26
 93e:	e0 5c       	subi	r30, 0xC0	; 192
 940:	fe 4f       	sbci	r31, 0xFE	; 254
 942:	80 81       	ld	r24, Z
 944:	98 17       	cp	r25, r24
 946:	09 f4       	brne	.+2      	; 0x94a <main+0x42>
 948:	3f 5f       	subi	r19, 0xFF	; 255
			    if( recv_data[i] == Cmd_Message_2[i] ) eq_count2++ ; 
 94a:	fd 01       	movw	r30, r26
 94c:	eb 58       	subi	r30, 0x8B	; 139
 94e:	fe 4f       	sbci	r31, 0xFE	; 254
 950:	90 81       	ld	r25, Z
 952:	ad 5b       	subi	r26, 0xBD	; 189
 954:	be 4f       	sbci	r27, 0xFE	; 254
 956:	8c 91       	ld	r24, X
 958:	98 17       	cp	r25, r24
 95a:	09 f4       	brne	.+2      	; 0x95e <main+0x56>
 95c:	4f 5f       	subi	r20, 0xFF	; 255
	Servo_SET();
	while (1) 
	{ 
		if( new_recv_flag == 1)
		{
			for( i=0; i < recv_cnt ; i++) 
 95e:	2f 5f       	subi	r18, 0xFF	; 255
 960:	80 91 79 01 	lds	r24, 0x0179
 964:	28 17       	cp	r18, r24
 966:	20 f3       	brcs	.-56     	; 0x930 <main+0x28>
			{
				if( recv_data[i] == Cmd_Message_1[i] ) eq_count1++ ;
			    if( recv_data[i] == Cmd_Message_2[i] ) eq_count2++ ; 
            }
	
			if(eq_count1 == 2) cmd_data = 1;
 968:	32 30       	cpi	r19, 0x02	; 2
 96a:	11 f4       	brne	.+4      	; 0x970 <main+0x68>
 96c:	81 e0       	ldi	r24, 0x01	; 1
 96e:	05 c0       	rjmp	.+10     	; 0x97a <main+0x72>
			else if(eq_count2 == 3) cmd_data = 2;
 970:	43 30       	cpi	r20, 0x03	; 3
 972:	11 f0       	breq	.+4      	; 0x978 <main+0x70>
 974:	8e ef       	ldi	r24, 0xFE	; 254
 976:	01 c0       	rjmp	.+2      	; 0x97a <main+0x72>
 978:	82 e0       	ldi	r24, 0x02	; 2
			else cmd_data = 0xFE;
			
			eq_count1 = 0, eq_count2 = 0 , new_recv_flag = 0;
 97a:	10 92 78 01 	sts	0x0178, r1
		}
		if(cmd_data == 1)
 97e:	81 30       	cpi	r24, 0x01	; 1
 980:	99 f4       	brne	.+38     	; 0x9a8 <main+0xa0>
		{
			Servo_On();
 982:	0e 94 b2 01 	call	0x364	; 0x364 <Servo_On>
 986:	84 e6       	ldi	r24, 0x64	; 100
 988:	90 e0       	ldi	r25, 0x00	; 0
 98a:	fe 01       	movw	r30, r28
 98c:	31 97       	sbiw	r30, 0x01	; 1
 98e:	f1 f7       	brne	.-4      	; 0x98c <main+0x84>
	return Num ;
}

void msec_delay(unsigned int n)
{	
	for(; n>0; n--)		// 1msec 시간 지연을 n회 반복
 990:	01 97       	sbiw	r24, 0x01	; 1
 992:	d9 f7       	brne	.-10     	; 0x98a <main+0x82>
		}
		if(cmd_data == 1)
		{
			Servo_On();
			msec_delay(100);
			LcdCommand(ALLCLR);
 994:	81 e0       	ldi	r24, 0x01	; 1
 996:	0e 94 ec 00 	call	0x1d8	; 0x1d8 <LcdCommand>
			LcdMove(0,0);
 99a:	80 e0       	ldi	r24, 0x00	; 0
 99c:	60 e0       	ldi	r22, 0x00	; 0
 99e:	0e 94 25 01 	call	0x24a	; 0x24a <LcdMove>
			LcdPuts("Turn On!!");
 9a2:	8b e1       	ldi	r24, 0x1B	; 27
 9a4:	91 e0       	ldi	r25, 0x01	; 1
 9a6:	28 c0       	rjmp	.+80     	; 0x9f8 <main+0xf0>
			
		}
		else if(cmd_data == 2)
 9a8:	82 30       	cpi	r24, 0x02	; 2
 9aa:	99 f4       	brne	.+38     	; 0x9d2 <main+0xca>
		{
			Servo_Off();
 9ac:	0e 94 c2 01 	call	0x384	; 0x384 <Servo_Off>
 9b0:	84 e6       	ldi	r24, 0x64	; 100
 9b2:	90 e0       	ldi	r25, 0x00	; 0
 9b4:	fe 01       	movw	r30, r28
 9b6:	31 97       	sbiw	r30, 0x01	; 1
 9b8:	f1 f7       	brne	.-4      	; 0x9b6 <main+0xae>
	return Num ;
}

void msec_delay(unsigned int n)
{	
	for(; n>0; n--)		// 1msec 시간 지연을 n회 반복
 9ba:	01 97       	sbiw	r24, 0x01	; 1
 9bc:	d9 f7       	brne	.-10     	; 0x9b4 <main+0xac>
		}
		else if(cmd_data == 2)
		{
			Servo_Off();
			msec_delay(100);
			LcdCommand(ALLCLR);
 9be:	81 e0       	ldi	r24, 0x01	; 1
 9c0:	0e 94 ec 00 	call	0x1d8	; 0x1d8 <LcdCommand>
			LcdMove(0,0);
 9c4:	80 e0       	ldi	r24, 0x00	; 0
 9c6:	60 e0       	ldi	r22, 0x00	; 0
 9c8:	0e 94 25 01 	call	0x24a	; 0x24a <LcdMove>
			LcdPuts("Turn Off!!");
 9cc:	85 e2       	ldi	r24, 0x25	; 37
 9ce:	91 e0       	ldi	r25, 0x01	; 1
 9d0:	13 c0       	rjmp	.+38     	; 0x9f8 <main+0xf0>

		}
		else if(cmd_data == 0xFE)
 9d2:	8e 3f       	cpi	r24, 0xFE	; 254
 9d4:	99 f4       	brne	.+38     	; 0x9fc <main+0xf4>
		{
			LcdCommand(ALLCLR);
 9d6:	81 e0       	ldi	r24, 0x01	; 1
 9d8:	0e 94 ec 00 	call	0x1d8	; 0x1d8 <LcdCommand>
			LcdMove(0,0);
 9dc:	80 e0       	ldi	r24, 0x00	; 0
 9de:	60 e0       	ldi	r22, 0x00	; 0
 9e0:	0e 94 25 01 	call	0x24a	; 0x24a <LcdMove>
			LcdPuts("Command Error!!");
 9e4:	80 e3       	ldi	r24, 0x30	; 48
 9e6:	91 e0       	ldi	r25, 0x01	; 1
 9e8:	0e 94 cf 00 	call	0x19e	; 0x19e <LcdPuts>
			LcdMove(1,0);
 9ec:	81 e0       	ldi	r24, 0x01	; 1
 9ee:	60 e0       	ldi	r22, 0x00	; 0
 9f0:	0e 94 25 01 	call	0x24a	; 0x24a <LcdMove>
			LcdPuts(recv_data);
 9f4:	85 e7       	ldi	r24, 0x75	; 117
 9f6:	91 e0       	ldi	r25, 0x01	; 1
 9f8:	0e 94 cf 00 	call	0x19e	; 0x19e <LcdPuts>
		}
		Servo_SET();
 9fc:	0e 94 d2 01 	call	0x3a4	; 0x3a4 <Servo_SET>
 a00:	8e cf       	rjmp	.-228    	; 0x91e <main+0x16>

00000a02 <__udivmodhi4>:
 a02:	aa 1b       	sub	r26, r26
 a04:	bb 1b       	sub	r27, r27
 a06:	51 e1       	ldi	r21, 0x11	; 17
 a08:	07 c0       	rjmp	.+14     	; 0xa18 <__udivmodhi4_ep>

00000a0a <__udivmodhi4_loop>:
 a0a:	aa 1f       	adc	r26, r26
 a0c:	bb 1f       	adc	r27, r27
 a0e:	a6 17       	cp	r26, r22
 a10:	b7 07       	cpc	r27, r23
 a12:	10 f0       	brcs	.+4      	; 0xa18 <__udivmodhi4_ep>
 a14:	a6 1b       	sub	r26, r22
 a16:	b7 0b       	sbc	r27, r23

00000a18 <__udivmodhi4_ep>:
 a18:	88 1f       	adc	r24, r24
 a1a:	99 1f       	adc	r25, r25
 a1c:	5a 95       	dec	r21
 a1e:	a9 f7       	brne	.-22     	; 0xa0a <__udivmodhi4_loop>
 a20:	80 95       	com	r24
 a22:	90 95       	com	r25
 a24:	bc 01       	movw	r22, r24
 a26:	cd 01       	movw	r24, r26
 a28:	08 95       	ret

00000a2a <__divmodhi4>:
 a2a:	97 fb       	bst	r25, 7
 a2c:	09 2e       	mov	r0, r25
 a2e:	07 26       	eor	r0, r23
 a30:	0a d0       	rcall	.+20     	; 0xa46 <__divmodhi4_neg1>
 a32:	77 fd       	sbrc	r23, 7
 a34:	04 d0       	rcall	.+8      	; 0xa3e <__divmodhi4_neg2>
 a36:	e5 df       	rcall	.-54     	; 0xa02 <__udivmodhi4>
 a38:	06 d0       	rcall	.+12     	; 0xa46 <__divmodhi4_neg1>
 a3a:	00 20       	and	r0, r0
 a3c:	1a f4       	brpl	.+6      	; 0xa44 <__divmodhi4_exit>

00000a3e <__divmodhi4_neg2>:
 a3e:	70 95       	com	r23
 a40:	61 95       	neg	r22
 a42:	7f 4f       	sbci	r23, 0xFF	; 255

00000a44 <__divmodhi4_exit>:
 a44:	08 95       	ret

00000a46 <__divmodhi4_neg1>:
 a46:	f6 f7       	brtc	.-4      	; 0xa44 <__divmodhi4_exit>
 a48:	90 95       	com	r25
 a4a:	81 95       	neg	r24
 a4c:	9f 4f       	sbci	r25, 0xFF	; 255
 a4e:	08 95       	ret

00000a50 <itoa>:
 a50:	fb 01       	movw	r30, r22
 a52:	9f 01       	movw	r18, r30
 a54:	e8 94       	clt
 a56:	42 30       	cpi	r20, 0x02	; 2
 a58:	c4 f0       	brlt	.+48     	; 0xa8a <itoa+0x3a>
 a5a:	45 32       	cpi	r20, 0x25	; 37
 a5c:	b4 f4       	brge	.+44     	; 0xa8a <itoa+0x3a>
 a5e:	4a 30       	cpi	r20, 0x0A	; 10
 a60:	29 f4       	brne	.+10     	; 0xa6c <itoa+0x1c>
 a62:	97 fb       	bst	r25, 7
 a64:	1e f4       	brtc	.+6      	; 0xa6c <itoa+0x1c>
 a66:	90 95       	com	r25
 a68:	81 95       	neg	r24
 a6a:	9f 4f       	sbci	r25, 0xFF	; 255
 a6c:	64 2f       	mov	r22, r20
 a6e:	77 27       	eor	r23, r23
 a70:	0e 94 01 05 	call	0xa02	; 0xa02 <__udivmodhi4>
 a74:	80 5d       	subi	r24, 0xD0	; 208
 a76:	8a 33       	cpi	r24, 0x3A	; 58
 a78:	0c f0       	brlt	.+2      	; 0xa7c <itoa+0x2c>
 a7a:	89 5d       	subi	r24, 0xD9	; 217
 a7c:	81 93       	st	Z+, r24
 a7e:	cb 01       	movw	r24, r22
 a80:	00 97       	sbiw	r24, 0x00	; 0
 a82:	a1 f7       	brne	.-24     	; 0xa6c <itoa+0x1c>
 a84:	16 f4       	brtc	.+4      	; 0xa8a <itoa+0x3a>
 a86:	5d e2       	ldi	r21, 0x2D	; 45
 a88:	51 93       	st	Z+, r21
 a8a:	10 82       	st	Z, r1
 a8c:	c9 01       	movw	r24, r18
 a8e:	0c 94 49 05 	jmp	0xa92	; 0xa92 <strrev>

00000a92 <strrev>:
 a92:	dc 01       	movw	r26, r24
 a94:	fc 01       	movw	r30, r24
 a96:	67 2f       	mov	r22, r23
 a98:	71 91       	ld	r23, Z+
 a9a:	77 23       	and	r23, r23
 a9c:	e1 f7       	brne	.-8      	; 0xa96 <strrev+0x4>
 a9e:	32 97       	sbiw	r30, 0x02	; 2
 aa0:	04 c0       	rjmp	.+8      	; 0xaaa <strrev+0x18>
 aa2:	7c 91       	ld	r23, X
 aa4:	6d 93       	st	X+, r22
 aa6:	70 83       	st	Z, r23
 aa8:	62 91       	ld	r22, -Z
 aaa:	ae 17       	cp	r26, r30
 aac:	bf 07       	cpc	r27, r31
 aae:	c8 f3       	brcs	.-14     	; 0xaa2 <strrev+0x10>
 ab0:	08 95       	ret

00000ab2 <_exit>:
 ab2:	f8 94       	cli

00000ab4 <__stop_program>:
 ab4:	ff cf       	rjmp	.-2      	; 0xab4 <__stop_program>
